target datalayout = "e-m:e-p270:32:32-p271:32:32-p272:64:64-i64:64-i128:128-f80:128-n8:16:32:64-S128"
target triple = "x86_64-pc-linux-gnu"

%union.pthread_mutex_t = type { %struct.__pthread_mutex_s }
%struct.__pthread_mutex_s = type { i32, i32, i32, i32, i32, i16, i16, %struct.__pthread_internal_list }
%struct.__pthread_internal_list = type { ptr, ptr }

@cluster_hl = internal global ptr null, align 8
@cluster_hl_mutex = internal global %union.pthread_mutex_t zeroinitializer, align 8
@.str.70 = private unnamed_addr constant [29 x i8] c"%s: pthread_mutex_lock(): %m\00", align 1
@__func__.acct_storage_p_node_inx = private unnamed_addr constant [24 x i8] c"acct_storage_p_node_inx\00", align 1
@.str.71 = private unnamed_addr constant [31 x i8] c"%s: pthread_mutex_unlock(): %m\00", align 1

; Function Attrs: nounwind uwtable
define dso_local ptr @acct_storage_p_node_inx(ptr noundef %0, ptr noundef %1) #0 {
  %3 = alloca ptr, align 8
  %4 = alloca ptr, align 8
  %5 = alloca ptr, align 8
  %6 = alloca ptr, align 8
  %7 = alloca ptr, align 8
  %8 = alloca ptr, align 8
  %9 = alloca ptr, align 8
  %10 = alloca ptr, align 8
  %11 = alloca i32, align 4
  %12 = alloca i32, align 4
  %13 = alloca i32, align 4
  %14 = alloca i32, align 4
  %15 = alloca i32, align 4
  store ptr %0, ptr %4, align 8
  store ptr %1, ptr %5, align 8
  call void @llvm.lifetime.start.p0(i64 8, ptr %6) #9
  call void @llvm.lifetime.start.p0(i64 8, ptr %7) #9
  call void @llvm.lifetime.start.p0(i64 8, ptr %8) #9
  call void @llvm.lifetime.start.p0(i64 8, ptr %9) #9
  call void @llvm.lifetime.start.p0(i64 8, ptr %10) #9
  %16 = load ptr, ptr %5, align 8
  %17 = icmp ne ptr %16, null
  br i1 %17, label %19, label %18

18:                                               ; preds = %2
  store ptr null, ptr %3, align 8
  store i32 1, ptr %11, align 4
  br label %106

19:                                               ; preds = %2
  %20 = load ptr, ptr %5, align 8
  %21 = call ptr @slurm_hostlist_create(ptr noundef %20)
  store ptr %21, ptr %8, align 8
  %22 = load ptr, ptr %8, align 8
  %23 = call ptr @slurm_hostlist_iterator_create(ptr noundef %22)
  store ptr %23, ptr %10, align 8
  br label %24

24:                                               ; preds = %19
  call void @llvm.lifetime.start.p0(i64 4, ptr %12) #9
  %25 = call i32 @pthread_mutex_lock(ptr noundef @cluster_hl_mutex) #9
  store i32 %25, ptr %12, align 4
  %26 = load i32, ptr %12, align 4
  %27 = icmp ne i32 %26, 0
  br i1 %27, label %28, label %31

28:                                               ; preds = %24
  %29 = load i32, ptr %12, align 4
  %30 = call ptr @__errno_location() #10
  store i32 %29, ptr %30, align 4
  call void (ptr, ...) @slurm_fatal_abort(ptr noundef @.str.70, ptr noundef @__func__.acct_storage_p_node_inx) #8
  unreachable

31:                                               ; preds = %24
  call void @llvm.lifetime.end.p0(i64 4, ptr %12) #9
  br label %32

32:                                               ; preds = %31
  br label %33

33:                                               ; preds = %32
  %34 = load ptr, ptr @cluster_hl, align 8
  %35 = icmp ne ptr %34, null
  br i1 %35, label %56, label %36

36:                                               ; preds = %33
  br label %37

37:                                               ; preds = %36
  call void @llvm.lifetime.start.p0(i64 4, ptr %13) #9
  %38 = call i32 @pthread_mutex_unlock(ptr noundef @cluster_hl_mutex) #9
  store i32 %38, ptr %13, align 4
  %39 = load i32, ptr %13, align 4
  %40 = icmp ne i32 %39, 0
  br i1 %40, label %41, label %44

41:                                               ; preds = %37
  %42 = load i32, ptr %13, align 4
  %43 = call ptr @__errno_location() #10
  store i32 %42, ptr %43, align 4
  call void (ptr, ...) @slurm_fatal_abort(ptr noundef @.str.71, ptr noundef @__func__.acct_storage_p_node_inx) #8
  unreachable

44:                                               ; preds = %37
  call void @llvm.lifetime.end.p0(i64 4, ptr %13) #9
  br label %45

45:                                               ; preds = %44
  br label %46

46:                                               ; preds = %45
  %47 = load ptr, ptr %10, align 8
  call void @slurm_hostlist_iterator_destroy(ptr noundef %47)
  br label %48

48:                                               ; preds = %46
  %49 = load ptr, ptr %8, align 8
  %50 = icmp ne ptr %49, null
  br i1 %50, label %51, label %53

51:                                               ; preds = %48
  %52 = load ptr, ptr %8, align 8
  call void @slurm_hostlist_destroy(ptr noundef %52)
  br label %53

53:                                               ; preds = %51, %48
  store ptr null, ptr %8, align 8
  br label %54

54:                                               ; preds = %53
  br label %55

55:                                               ; preds = %54
  store ptr null, ptr %3, align 8
  store i32 1, ptr %11, align 4
  br label %106

56:                                               ; preds = %33
  %57 = load ptr, ptr @cluster_hl, align 8
  %58 = call i32 @slurm_hostlist_count(ptr noundef %57)
  %59 = sext i32 %58 to i64
  %60 = call ptr @slurm_bit_alloc(i64 noundef %59)
  store ptr %60, ptr %9, align 8
  br label %61

61:                                               ; preds = %74, %56
  %62 = load ptr, ptr %10, align 8
  %63 = call ptr @slurm_hostlist_next(ptr noundef %62)
  store ptr %63, ptr %6, align 8
  %64 = icmp ne ptr %63, null
  br i1 %64, label %65, label %76

65:                                               ; preds = %61
  call void @llvm.lifetime.start.p0(i64 4, ptr %14) #9
  %66 = load ptr, ptr @cluster_hl, align 8
  %67 = load ptr, ptr %6, align 8
  %68 = call i32 @slurm_hostlist_find(ptr noundef %66, ptr noundef %67)
  store i32 %68, ptr %14, align 4
  %69 = icmp ne i32 %68, -1
  br i1 %69, label %70, label %74

70:                                               ; preds = %65
  %71 = load ptr, ptr %9, align 8
  %72 = load i32, ptr %14, align 4
  %73 = sext i32 %72 to i64
  call void @slurm_bit_set(ptr noundef %71, i64 noundef %73)
  br label %74

74:                                               ; preds = %70, %65
  %75 = load ptr, ptr %6, align 8
  call void @free(ptr noundef %75) #9
  call void @llvm.lifetime.end.p0(i64 4, ptr %14) #9
  br label %61, !llvm.loop !10

76:                                               ; preds = %61
  br label %77

77:                                               ; preds = %76
  call void @llvm.lifetime.start.p0(i64 4, ptr %15) #9
  %78 = call i32 @pthread_mutex_unlock(ptr noundef @cluster_hl_mutex) #9
  store i32 %78, ptr %15, align 4
  %79 = load i32, ptr %15, align 4
  %80 = icmp ne i32 %79, 0
  br i1 %80, label %81, label %84

81:                                               ; preds = %77
  %82 = load i32, ptr %15, align 4
  %83 = call ptr @__errno_location() #10
  store i32 %82, ptr %83, align 4
  call void (ptr, ...) @slurm_fatal_abort(ptr noundef @.str.71, ptr noundef @__func__.acct_storage_p_node_inx) #8
  unreachable

84:                                               ; preds = %77
  call void @llvm.lifetime.end.p0(i64 4, ptr %15) #9
  br label %85

85:                                               ; preds = %84
  br label %86

86:                                               ; preds = %85
  %87 = load ptr, ptr %10, align 8
  call void @slurm_hostlist_iterator_destroy(ptr noundef %87)
  br label %88

88:                                               ; preds = %86
  %89 = load ptr, ptr %8, align 8
  %90 = icmp ne ptr %89, null
  br i1 %90, label %91, label %93

91:                                               ; preds = %88
  %92 = load ptr, ptr %8, align 8
  call void @slurm_hostlist_destroy(ptr noundef %92)
  br label %93

93:                                               ; preds = %91, %88
  store ptr null, ptr %8, align 8
  br label %94

94:                                               ; preds = %93
  br label %95

95:                                               ; preds = %94
  %96 = load ptr, ptr %9, align 8
  %97 = call ptr @slurm_bit_fmt_full(ptr noundef %96)
  store ptr %97, ptr %7, align 8
  br label %98

98:                                               ; preds = %95
  %99 = load ptr, ptr %9, align 8
  %100 = icmp ne ptr %99, null
  br i1 %100, label %101, label %102

101:                                              ; preds = %98
  call void @slurm_bit_free(ptr noundef %9)
  br label %102

102:                                              ; preds = %101, %98
  store ptr null, ptr %9, align 8
  br label %103

103:                                              ; preds = %102
  br label %104

104:                                              ; preds = %103
  %105 = load ptr, ptr %7, align 8
  store ptr %105, ptr %3, align 8
  store i32 1, ptr %11, align 4
  br label %106

106:                                              ; preds = %104, %55, %18
  call void @llvm.lifetime.end.p0(i64 8, ptr %10) #9
  call void @llvm.lifetime.end.p0(i64 8, ptr %9) #9
  call void @llvm.lifetime.end.p0(i64 8, ptr %8) #9
  call void @llvm.lifetime.end.p0(i64 8, ptr %7) #9
  call void @llvm.lifetime.end.p0(i64 8, ptr %6) #9
  %107 = load ptr, ptr %3, align 8
  ret ptr %107
}