; Function Attrs: nounwind uwtable
define dso_local ptr @acct_storage_p_node_inx(ptr noundef readnone captures(none) %0, ptr noundef %1) local_unnamed_addr #0 {
  %3 = alloca ptr, align 8
  call void @llvm.lifetime.start.p0(i64 8, ptr nonnull %3) #11
  %.not = icmp eq ptr %1, null
  br i1 %.not, label %38, label %4

4:                                                ; preds = %2
  %5 = tail call ptr @slurm_hostlist_create(ptr noundef nonnull %1) #11
  %6 = tail call ptr @slurm_hostlist_iterator_create(ptr noundef %5) #11
  %7 = tail call i32 @pthread_mutex_lock(ptr noundef nonnull @cluster_hl_mutex) #11
  %.not28 = icmp eq i32 %7, 0
  br i1 %.not28, label %10, label %8

8:                                                ; preds = %4
  %9 = tail call ptr @__errno_location() #12
  store i32 %7, ptr %9, align 4
  tail call void (ptr, ...) @slurm_fatal_abort(ptr noundef nonnull @.str.70, ptr noundef nonnull @__func__.acct_storage_p_node_inx) #10
  unreachable

10:                                               ; preds = %4
  %11 = load ptr, ptr @cluster_hl, align 8
  %.not29 = icmp eq ptr %11, null
  br i1 %.not29, label %12, label %18

12:                                               ; preds = %10
  %13 = tail call i32 @pthread_mutex_unlock(ptr noundef nonnull @cluster_hl_mutex) #11
  %.not30 = icmp eq i32 %13, 0
  br i1 %.not30, label %16, label %14

14:                                               ; preds = %12
  %15 = tail call ptr @__errno_location() #12
  store i32 %13, ptr %15, align 4
  tail call void (ptr, ...) @slurm_fatal_abort(ptr noundef nonnull @.str.71, ptr noundef nonnull @__func__.acct_storage_p_node_inx) #10
  unreachable

16:                                               ; preds = %12
  tail call void @slurm_hostlist_iterator_destroy(ptr noundef %6) #11
  %.not31 = icmp eq ptr %5, null
  br i1 %.not31, label %38, label %17

17:                                               ; preds = %16
  tail call void @slurm_hostlist_destroy(ptr noundef nonnull %5) #11
  br label %38

18:                                               ; preds = %10
  %19 = tail call i32 @slurm_hostlist_count(ptr noundef nonnull %11) #11
  %20 = sext i32 %19 to i64
  %21 = tail call ptr @slurm_bit_alloc(i64 noundef %20) #11
  store ptr %21, ptr %3, align 8
  %22 = tail call ptr @slurm_hostlist_next(ptr noundef %6) #11
  %.not3237 = icmp eq ptr %22, null
  br i1 %.not3237, label %._crit_edge, label %.lr.ph

.lr.ph:                                           ; preds = %18, %28
  %23 = phi ptr [ %29, %28 ], [ %22, %18 ]
  %24 = load ptr, ptr @cluster_hl, align 8
  %25 = tail call i32 @slurm_hostlist_find(ptr noundef %24, ptr noundef nonnull %23) #11
  %.not36 = icmp eq i32 %25, -1
  br i1 %.not36, label %28, label %26

26:                                               ; preds = %.lr.ph
  %27 = sext i32 %25 to i64
  tail call void @slurm_bit_set(ptr noundef %21, i64 noundef %27) #11
  br label %28

28:                                               ; preds = %26, %.lr.ph
  tail call void @free(ptr noundef nonnull %23) #11
  %29 = tail call ptr @slurm_hostlist_next(ptr noundef %6) #11
  %.not32 = icmp eq ptr %29, null
  br i1 %.not32, label %._crit_edge, label %.lr.ph, !llvm.loop !8

._crit_edge:                                      ; preds = %28, %18
  %30 = tail call i32 @pthread_mutex_unlock(ptr noundef nonnull @cluster_hl_mutex) #11
  %.not33 = icmp eq i32 %30, 0
  br i1 %.not33, label %33, label %31

31:                                               ; preds = %._crit_edge
  %32 = tail call ptr @__errno_location() #12
  store i32 %30, ptr %32, align 4
  tail call void (ptr, ...) @slurm_fatal_abort(ptr noundef nonnull @.str.71, ptr noundef nonnull @__func__.acct_storage_p_node_inx) #10
  unreachable

33:                                               ; preds = %._crit_edge
  tail call void @slurm_hostlist_iterator_destroy(ptr noundef %6) #11
  %.not34 = icmp eq ptr %5, null
  br i1 %.not34, label %35, label %34

34:                                               ; preds = %33
  tail call void @slurm_hostlist_destroy(ptr noundef nonnull %5) #11
  br label %35

35:                                               ; preds = %34, %33
  %36 = tail call ptr @slurm_bit_fmt_full(ptr noundef %21) #11
  %.not35 = icmp eq ptr %21, null
  br i1 %.not35, label %38, label %37

37:                                               ; preds = %35
  call void @slurm_bit_free(ptr noundef nonnull %3) #11
  br label %38

38:                                               ; preds = %35, %37, %16, %17, %2
  %.0 = phi ptr [ null, %2 ], [ null, %17 ], [ null, %16 ], [ %36, %37 ], [ %36, %35 ]
  call void @llvm.lifetime.end.p0(i64 8, ptr nonnull %3) #11
  ret ptr %.0
}